; Function Attrs: null_pointer_is_valid sspstrong uwtable
define internal i32 @dissect_ies(ptr noundef %0, ptr noundef %1, ptr noundef %2, ptr readnone captures(none) %3) #0 {
  %5 = load ptr, ptr @q931_ie_handle, align 8
  %.not = icmp eq ptr %5, null
  br i1 %.not, label %9, label %6

6:                                                ; preds = %4
  %7 = tail call i32 @call_dissector(ptr noundef nonnull %5, ptr noundef %0, ptr noundef %1, ptr noundef %2)
  %8 = tail call i32 @tvb_reported_length_remaining(ptr noundef %0, i32 noundef 0)
  br label %9

9:                                                ; preds = %6, %4
  %.0 = phi i32 [ %8, %6 ], [ 0, %4 ]
  ret i32 %.0
}